target datalayout = "e-m:e-p270:32:32-p271:32:32-p272:64:64-i64:64-i128:128-f80:128-n8:16:32:64-S128"
target triple = "x86_64-pc-linux-gnu"

%"class.cv::RBaseStream" = type <{ ptr, i8, [7 x i8], ptr, ptr, ptr, ptr, i32, i32, i8, [7 x i8] }>

; Function Attrs: mustprogress nounwind uwtable
define hidden void @_ZN2cv11RBaseStreamC2Ev(ptr noundef nonnull align 8 dereferenceable(57) %0) unnamed_addr #0 align 2 {
  %2 = alloca ptr, align 8
  store ptr %0, ptr %2, align 8, !tbaa !3
  %3 = load ptr, ptr %2, align 8
  store ptr getelementptr inbounds inrange(-16, 64) ({ [10 x ptr] }, ptr @_ZTVN2cv11RBaseStreamE, i32 0, i32 0, i32 2), ptr %3, align 8, !tbaa !21
  %4 = getelementptr inbounds nuw %"class.cv::RBaseStream", ptr %3, i32 0, i32 5
  store ptr null, ptr %4, align 8, !tbaa !20
  %5 = getelementptr inbounds nuw %"class.cv::RBaseStream", ptr %3, i32 0, i32 4
  store ptr null, ptr %5, align 8, !tbaa !19
  %6 = getelementptr inbounds nuw %"class.cv::RBaseStream", ptr %3, i32 0, i32 3
  store ptr null, ptr %6, align 8, !tbaa !18
  %7 = getelementptr inbounds nuw %"class.cv::RBaseStream", ptr %3, i32 0, i32 6
  store ptr null, ptr %7, align 8, !tbaa !23
  %8 = getelementptr inbounds nuw %"class.cv::RBaseStream", ptr %3, i32 0, i32 8
  store i32 0, ptr %8, align 4, !tbaa !24
  %9 = getelementptr inbounds nuw %"class.cv::RBaseStream", ptr %3, i32 0, i32 7
  store i32 32768, ptr %9, align 8, !tbaa !17
  %10 = getelementptr inbounds nuw %"class.cv::RBaseStream", ptr %3, i32 0, i32 9
  store i8 0, ptr %10, align 8, !tbaa !8
  %11 = getelementptr inbounds nuw %"class.cv::RBaseStream", ptr %3, i32 0, i32 1
  store i8 0, ptr %11, align 8, !tbaa !16
  ret void
}